target datalayout = "e-m:e-p270:32:32-p271:32:32-p272:64:64-i64:64-i128:128-f80:128-n8:16:32:64-S128"
target triple = "x86_64-pc-linux-gnu"

%struct.git_istream = type { ptr, ptr, ptr, i64, %struct.git_zstream, i32, %union.anon }
%struct.git_zstream = type { %struct.z_stream_s, i64, i64, i64, i64, ptr, ptr }
%struct.z_stream_s = type { ptr, i32, i64, ptr, i32, i64, ptr, ptr, ptr, ptr, ptr, i32, i64, i64 }
%union.anon = type { %struct.filtered_istream }
%struct.filtered_istream = type { ptr, ptr, [16384 x i8], [16384 x i8], i32, i32, i32, i32, i32 }
%struct.anon.1 = type { ptr, i64 }

; Function Attrs: nounwind uwtable
define internal i64 @read_istream_pack_non_delta(ptr noundef %0, ptr noundef %1, i64 noundef %2) #0 {
  %4 = alloca i64, align 8
  %5 = alloca ptr, align 8
  %6 = alloca ptr, align 8
  %7 = alloca i64, align 8
  %8 = alloca i64, align 8
  %9 = alloca i32, align 4
  %10 = alloca i32, align 4
  %11 = alloca ptr, align 8
  %12 = alloca ptr, align 8
  store ptr %0, ptr %5, align 8, !tbaa !4
  store ptr %1, ptr %6, align 8, !tbaa !87
  store i64 %2, ptr %7, align 8, !tbaa !19
  call void @llvm.lifetime.start.p0(i64 8, ptr %8) #8
  store i64 0, ptr %8, align 8, !tbaa !19
  %13 = load ptr, ptr %5, align 8, !tbaa !4
  %14 = getelementptr inbounds nuw %struct.git_istream, ptr %13, i32 0, i32 5
  %15 = load i32, ptr %14, align 8, !tbaa !84
  switch i32 %15, label %25 [
    i32 0, label %16
    i32 2, label %23
    i32 3, label %24
    i32 1, label %25
  ]

16:                                               ; preds = %3
  %17 = load ptr, ptr %5, align 8, !tbaa !4
  %18 = getelementptr inbounds nuw %struct.git_istream, ptr %17, i32 0, i32 4
  call void @llvm.memset.p0.i64(ptr align 8 %18, i8 0, i64 160, i1 false)
  %19 = load ptr, ptr %5, align 8, !tbaa !4
  %20 = getelementptr inbounds nuw %struct.git_istream, ptr %19, i32 0, i32 4
  call void @git_inflate_init(ptr noundef %20)
  %21 = load ptr, ptr %5, align 8, !tbaa !4
  %22 = getelementptr inbounds nuw %struct.git_istream, ptr %21, i32 0, i32 5
  store i32 1, ptr %22, align 8, !tbaa !84
  br label %25

23:                                               ; preds = %3
  store i64 0, ptr %4, align 8
  store i32 1, ptr %9, align 4
  br label %107

24:                                               ; preds = %3
  store i64 -1, ptr %4, align 8
  store i32 1, ptr %9, align 4
  br label %107

25:                                               ; preds = %3, %3, %16
  br label %26

26:                                               ; preds = %104, %25
  %27 = load i64, ptr %8, align 8, !tbaa !19
  %28 = load i64, ptr %7, align 8, !tbaa !19
  %29 = icmp ult i64 %27, %28
  br i1 %29, label %30, label %105

30:                                               ; preds = %26
  call void @llvm.lifetime.start.p0(i64 4, ptr %10) #8
  call void @llvm.lifetime.start.p0(i64 8, ptr %11) #8
  store ptr null, ptr %11, align 8, !tbaa !85
  call void @llvm.lifetime.start.p0(i64 8, ptr %12) #8
  %31 = load ptr, ptr %5, align 8, !tbaa !4
  %32 = getelementptr inbounds nuw %struct.git_istream, ptr %31, i32 0, i32 6
  %33 = getelementptr inbounds nuw %struct.anon.1, ptr %32, i32 0, i32 0
  %34 = load ptr, ptr %33, align 8, !tbaa !69
  %35 = load ptr, ptr %5, align 8, !tbaa !4
  %36 = getelementptr inbounds nuw %struct.git_istream, ptr %35, i32 0, i32 6
  %37 = getelementptr inbounds nuw %struct.anon.1, ptr %36, i32 0, i32 1
  %38 = load i64, ptr %37, align 8, !tbaa !69
  %39 = load ptr, ptr %5, align 8, !tbaa !4
  %40 = getelementptr inbounds nuw %struct.git_istream, ptr %39, i32 0, i32 4
  %41 = getelementptr inbounds nuw %struct.git_zstream, ptr %40, i32 0, i32 1
  %42 = call ptr @use_pack(ptr noundef %34, ptr noundef %11, i64 noundef %38, ptr noundef %41)
  store ptr %42, ptr %12, align 8, !tbaa !87
  %43 = load ptr, ptr %6, align 8, !tbaa !87
  %44 = load i64, ptr %8, align 8, !tbaa !19
  %45 = getelementptr inbounds nuw i8, ptr %43, i64 %44
  %46 = load ptr, ptr %5, align 8, !tbaa !4
  %47 = getelementptr inbounds nuw %struct.git_istream, ptr %46, i32 0, i32 4
  %48 = getelementptr inbounds nuw %struct.git_zstream, ptr %47, i32 0, i32 6
  store ptr %45, ptr %48, align 8, !tbaa !88
  %49 = load i64, ptr %7, align 8, !tbaa !19
  %50 = load i64, ptr %8, align 8, !tbaa !19
  %51 = sub i64 %49, %50
  %52 = load ptr, ptr %5, align 8, !tbaa !4
  %53 = getelementptr inbounds nuw %struct.git_istream, ptr %52, i32 0, i32 4
  %54 = getelementptr inbounds nuw %struct.git_zstream, ptr %53, i32 0, i32 2
  store i64 %51, ptr %54, align 8, !tbaa !89
  %55 = load ptr, ptr %12, align 8, !tbaa !87
  %56 = load ptr, ptr %5, align 8, !tbaa !4
  %57 = getelementptr inbounds nuw %struct.git_istream, ptr %56, i32 0, i32 4
  %58 = getelementptr inbounds nuw %struct.git_zstream, ptr %57, i32 0, i32 5
  store ptr %55, ptr %58, align 8, !tbaa !91
  %59 = load ptr, ptr %5, align 8, !tbaa !4
  %60 = getelementptr inbounds nuw %struct.git_istream, ptr %59, i32 0, i32 4
  %61 = call i32 @git_inflate(ptr noundef %60, i32 noundef 4)
  store i32 %61, ptr %10, align 4, !tbaa !17
  %62 = load ptr, ptr %5, align 8, !tbaa !4
  %63 = getelementptr inbounds nuw %struct.git_istream, ptr %62, i32 0, i32 4
  %64 = getelementptr inbounds nuw %struct.git_zstream, ptr %63, i32 0, i32 5
  %65 = load ptr, ptr %64, align 8, !tbaa !91
  %66 = load ptr, ptr %12, align 8, !tbaa !87
  %67 = ptrtoint ptr %65 to i64
  %68 = ptrtoint ptr %66 to i64
  %69 = sub i64 %67, %68
  %70 = load ptr, ptr %5, align 8, !tbaa !4
  %71 = getelementptr inbounds nuw %struct.git_istream, ptr %70, i32 0, i32 6
  %72 = getelementptr inbounds nuw %struct.anon.1, ptr %71, i32 0, i32 1
  %73 = load i64, ptr %72, align 8, !tbaa !69
  %74 = add nsw i64 %73, %69
  store i64 %74, ptr %72, align 8, !tbaa !69
  %75 = load ptr, ptr %5, align 8, !tbaa !4
  %76 = getelementptr inbounds nuw %struct.git_istream, ptr %75, i32 0, i32 4
  %77 = getelementptr inbounds nuw %struct.git_zstream, ptr %76, i32 0, i32 6
  %78 = load ptr, ptr %77, align 8, !tbaa !88
  %79 = load ptr, ptr %6, align 8, !tbaa !87
  %80 = ptrtoint ptr %78 to i64
  %81 = ptrtoint ptr %79 to i64
  %82 = sub i64 %80, %81
  store i64 %82, ptr %8, align 8, !tbaa !19
  call void @unuse_pack(ptr noundef %11)
  %83 = load i32, ptr %10, align 4, !tbaa !17
  %84 = icmp eq i32 %83, 1
  br i1 %84, label %85, label %90

85:                                               ; preds = %30
  %86 = load ptr, ptr %5, align 8, !tbaa !4
  %87 = getelementptr inbounds nuw %struct.git_istream, ptr %86, i32 0, i32 4
  call void @git_inflate_end(ptr noundef %87)
  %88 = load ptr, ptr %5, align 8, !tbaa !4
  %89 = getelementptr inbounds nuw %struct.git_istream, ptr %88, i32 0, i32 5
  store i32 2, ptr %89, align 8, !tbaa !84
  store i32 4, ptr %9, align 4
  br label %102

90:                                               ; preds = %30
  %91 = load i32, ptr %10, align 4, !tbaa !17
  %92 = icmp ne i32 %91, 0
  br i1 %92, label %93, label %101

93:                                               ; preds = %90
  %94 = load i32, ptr %10, align 4, !tbaa !17
  %95 = icmp ne i32 %94, -5
  br i1 %95, label %96, label %101

96:                                               ; preds = %93
  %97 = load ptr, ptr %5, align 8, !tbaa !4
  %98 = getelementptr inbounds nuw %struct.git_istream, ptr %97, i32 0, i32 4
  call void @git_inflate_end(ptr noundef %98)
  %99 = load ptr, ptr %5, align 8, !tbaa !4
  %100 = getelementptr inbounds nuw %struct.git_istream, ptr %99, i32 0, i32 5
  store i32 3, ptr %100, align 8, !tbaa !84
  store i64 -1, ptr %4, align 8
  store i32 1, ptr %9, align 4
  br label %102

101:                                              ; preds = %93, %90
  store i32 0, ptr %9, align 4
  br label %102

102:                                              ; preds = %101, %96, %85
  call void @llvm.lifetime.end.p0(i64 8, ptr %12) #8
  call void @llvm.lifetime.end.p0(i64 8, ptr %11) #8
  call void @llvm.lifetime.end.p0(i64 4, ptr %10) #8
  %103 = load i32, ptr %9, align 4
  switch i32 %103, label %107 [
    i32 0, label %104
    i32 4, label %105
  ]

104:                                              ; preds = %102
  br label %26, !llvm.loop !92

105:                                              ; preds = %102, %26
  %106 = load i64, ptr %8, align 8, !tbaa !19
  store i64 %106, ptr %4, align 8
  store i32 1, ptr %9, align 4
  br label %107

107:                                              ; preds = %105, %102, %24, %23
  call void @llvm.lifetime.end.p0(i64 8, ptr %8) #8
  %108 = load i64, ptr %4, align 8
  ret i64 %108
}