; Function Attrs: nounwind uwtable
define internal i64 @read_istream_pack_non_delta(ptr noundef %0, ptr noundef %1, i64 noundef %2) #0 {
  %4 = alloca ptr, align 8
  %5 = getelementptr inbounds nuw i8, ptr %0, i64 192
  %6 = load i32, ptr %5, align 8, !tbaa !72
  switch i32 %6, label %10 [
    i32 0, label %7
    i32 2, label %.loopexit
    i32 3, label %9
  ]

7:                                                ; preds = %3
  %8 = getelementptr inbounds nuw i8, ptr %0, i64 32
  tail call void @llvm.memset.p0.i64(ptr noundef nonnull align 8 dereferenceable(160) %8, i8 0, i64 160, i1 false)
  tail call void @git_inflate_init(ptr noundef nonnull %8) #11
  store i32 1, ptr %5, align 8, !tbaa !72
  br label %10

9:                                                ; preds = %3
  br label %.loopexit

10:                                               ; preds = %7, %3
  %.not = icmp eq i64 %2, 0
  br i1 %.not, label %.loopexit, label %.lr.ph

.lr.ph:                                           ; preds = %10
  %11 = getelementptr inbounds nuw i8, ptr %0, i64 200
  %12 = getelementptr inbounds nuw i8, ptr %0, i64 208
  %13 = getelementptr inbounds nuw i8, ptr %0, i64 32
  %14 = getelementptr inbounds nuw i8, ptr %0, i64 144
  %15 = getelementptr inbounds nuw i8, ptr %0, i64 184
  %16 = getelementptr inbounds nuw i8, ptr %0, i64 152
  %17 = getelementptr inbounds nuw i8, ptr %0, i64 176
  %18 = ptrtoint ptr %1 to i64
  br label %19

19:                                               ; preds = %.lr.ph, %35
  %.03346 = phi i64 [ 0, %.lr.ph ], [ %34, %35 ]
  call void @llvm.lifetime.start.p0(i64 8, ptr nonnull %4) #11
  store ptr null, ptr %4, align 8, !tbaa !73
  %20 = load ptr, ptr %11, align 8, !tbaa !56
  %21 = load i64, ptr %12, align 8, !tbaa !56
  %22 = call ptr @use_pack(ptr noundef %20, ptr noundef nonnull %4, i64 noundef %21, ptr noundef nonnull %14) #11
  %23 = getelementptr inbounds nuw i8, ptr %1, i64 %.03346
  store ptr %23, ptr %15, align 8, !tbaa !75
  %24 = sub nuw i64 %2, %.03346
  store i64 %24, ptr %16, align 8, !tbaa !76
  store ptr %22, ptr %17, align 8, !tbaa !77
  %25 = call i32 @git_inflate(ptr noundef nonnull %13, i32 noundef 4) #11
  %26 = load ptr, ptr %17, align 8, !tbaa !77
  %27 = ptrtoint ptr %26 to i64
  %28 = ptrtoint ptr %22 to i64
  %29 = sub i64 %27, %28
  %30 = load i64, ptr %12, align 8, !tbaa !56
  %31 = add nsw i64 %29, %30
  store i64 %31, ptr %12, align 8, !tbaa !56
  %32 = load ptr, ptr %15, align 8, !tbaa !75
  %33 = ptrtoint ptr %32 to i64
  %34 = sub i64 %33, %18
  call void @unuse_pack(ptr noundef nonnull %4) #11
  switch i32 %25, label %.thread [
    i32 1, label %37
    i32 -5, label %35
    i32 0, label %35
  ]

.thread:                                          ; preds = %19
  call void @git_inflate_end(ptr noundef nonnull %13) #11
  store i32 3, ptr %5, align 8, !tbaa !72
  call void @llvm.lifetime.end.p0(i64 8, ptr nonnull %4) #11
  br label %.loopexit

35:                                               ; preds = %19, %19
  call void @llvm.lifetime.end.p0(i64 8, ptr nonnull %4) #11
  %36 = icmp ult i64 %34, %2
  br i1 %36, label %19, label %.loopexit

37:                                               ; preds = %19
  call void @git_inflate_end(ptr noundef nonnull %13) #11
  store i32 2, ptr %5, align 8, !tbaa !72
  call void @llvm.lifetime.end.p0(i64 8, ptr nonnull %4) #11
  br label %.loopexit

.loopexit:                                        ; preds = %35, %10, %.thread, %3, %37, %9
  %.0 = phi i64 [ -1, %9 ], [ 0, %3 ], [ %34, %37 ], [ -1, %.thread ], [ 0, %10 ], [ %34, %35 ]
  ret i64 %.0
}